target datalayout = "e-m:e-p270:32:32-p271:32:32-p272:64:64-i64:64-i128:128-f80:128-n8:16:32:64-S128"
target triple = "x86_64-pc-linux-gnu"

%"class.duckdb::BaseStatistics" = type { %"struct.duckdb::LogicalType", i8, i8, i64, %union.anon, %"class.duckdb::unique_ptr" }
%"struct.duckdb::LogicalType" = type { i8, i8, %"class.duckdb::shared_ptr" }
%"class.duckdb::shared_ptr" = type { %"class.std::shared_ptr" }
%"class.std::shared_ptr" = type { %"class.std::__shared_ptr" }
%"class.std::__shared_ptr" = type { ptr, %"class.std::__shared_count" }
%"class.std::__shared_count" = type { ptr }
%union.anon = type { %"struct.duckdb::NumericStatsData" }
%"struct.duckdb::NumericStatsData" = type { i8, i8, %"struct.duckdb::NumericValueUnion", %"struct.duckdb::NumericValueUnion" }
%"struct.duckdb::NumericValueUnion" = type { %"union.duckdb::NumericValueUnion::Val" }
%"union.duckdb::NumericValueUnion::Val" = type { %"struct.duckdb::hugeint_t" }
%"struct.duckdb::hugeint_t" = type { i64, i64 }
%"class.duckdb::unique_ptr" = type { %"class.std::unique_ptr" }
%"class.std::unique_ptr" = type { %"struct.std::__uniq_ptr_data" }
%"struct.std::__uniq_ptr_data" = type { %"class.std::__uniq_ptr_impl" }
%"class.std::__uniq_ptr_impl" = type { %"class.std::tuple" }
%"class.std::tuple" = type { %"struct.std::_Tuple_impl" }
%"struct.std::_Tuple_impl" = type { %"struct.std::_Head_base.1" }
%"struct.std::_Head_base.1" = type { ptr }

@_ZN6duckdb14BaseStatisticsC1ENS_11LogicalTypeE = unnamed_addr alias void (ptr, ptr), ptr @_ZN6duckdb14BaseStatisticsC2ENS_11LogicalTypeE
@_ZN6duckdb14BaseStatisticsD1Ev = unnamed_addr alias void (ptr), ptr @_ZN6duckdb14BaseStatisticsD2Ev

; Function Attrs: mustprogress uwtable
define void @_ZNK6duckdb14BaseStatistics4CopyEv(ptr dead_on_unwind noalias writable sret(%"class.duckdb::BaseStatistics") align 8 %0, ptr noundef nonnull align 8 dereferenceable(88) %1) #4 align 2 personality ptr @__gxx_personality_v0 {
  %3 = alloca ptr, align 8
  %4 = alloca ptr, align 8
  %5 = alloca i1, align 1
  %6 = alloca %"struct.duckdb::LogicalType", align 8
  %7 = alloca ptr, align 8
  %8 = alloca i32, align 4
  store ptr %0, ptr %3, align 8
  store ptr %1, ptr %4, align 8, !tbaa !3
  %9 = load ptr, ptr %4, align 8
  store i1 false, ptr %5, align 1
  %10 = getelementptr inbounds nuw %"class.duckdb::BaseStatistics", ptr %9, i32 0, i32 0
  call void @_ZN6duckdb11LogicalTypeC1ERKS0_(ptr noundef nonnull align 8 dereferenceable(24) %6, ptr noundef nonnull align 8 dereferenceable(24) %10)
  invoke void @_ZN6duckdb14BaseStatisticsC1ENS_11LogicalTypeE(ptr noundef nonnull align 8 dereferenceable(88) %0, ptr noundef %6)
          to label %11 unwind label %14

11:                                               ; preds = %2
  call void @_ZN6duckdb11LogicalTypeD1Ev(ptr noundef nonnull align 8 dereferenceable(24) %6) #3
  invoke void @_ZN6duckdb14BaseStatistics4CopyERKS0_(ptr noundef nonnull align 8 dereferenceable(88) %0, ptr noundef nonnull align 8 dereferenceable(88) %9)
          to label %12 unwind label %18

12:                                               ; preds = %11
  store i1 true, ptr %5, align 1
  %13 = load i1, ptr %5, align 1
  br i1 %13, label %23, label %22

14:                                               ; preds = %2
  %15 = landingpad { ptr, i32 }
          cleanup
  %16 = extractvalue { ptr, i32 } %15, 0
  store ptr %16, ptr %7, align 8
  %17 = extractvalue { ptr, i32 } %15, 1
  store i32 %17, ptr %8, align 4
  call void @_ZN6duckdb11LogicalTypeD1Ev(ptr noundef nonnull align 8 dereferenceable(24) %6) #3
  br label %24

18:                                               ; preds = %11
  %19 = landingpad { ptr, i32 }
          cleanup
  %20 = extractvalue { ptr, i32 } %19, 0
  store ptr %20, ptr %7, align 8
  %21 = extractvalue { ptr, i32 } %19, 1
  store i32 %21, ptr %8, align 4
  call void @_ZN6duckdb14BaseStatisticsD1Ev(ptr noundef nonnull align 8 dereferenceable(88) %0) #3
  br label %24

22:                                               ; preds = %12
  call void @_ZN6duckdb14BaseStatisticsD1Ev(ptr noundef nonnull align 8 dereferenceable(88) %0) #3
  br label %23

23:                                               ; preds = %22, %12
  ret void

24:                                               ; preds = %18, %14
  %25 = load ptr, ptr %7, align 8
  %26 = load i32, ptr %8, align 4
  %27 = insertvalue { ptr, i32 } poison, ptr %25, 0
  %28 = insertvalue { ptr, i32 } %27, i32 %26, 1
  resume { ptr, i32 } %28
}