; Function Attrs: mustprogress uwtable
define void @_ZNK6duckdb14BaseStatistics4CopyEv(ptr dead_on_unwind noalias writable sret(%"class.duckdb::BaseStatistics") align 8 %0, ptr noundef nonnull align 8 dereferenceable(88) %1) local_unnamed_addr #3 align 2 personality ptr @__gxx_personality_v0 {
  %3 = alloca %"struct.duckdb::LogicalType", align 8
  call void @_ZN6duckdb11LogicalTypeC1ERKS0_(ptr noundef nonnull align 8 dereferenceable(24) %3, ptr noundef nonnull align 8 dereferenceable(24) %1)
  invoke void @_ZN6duckdb14BaseStatisticsC1ENS_11LogicalTypeE(ptr noundef nonnull align 8 dereferenceable(88) %0, ptr noundef nonnull %3)
          to label %4 unwind label %5

4:                                                ; preds = %2
  call void @_ZN6duckdb11LogicalTypeD1Ev(ptr noundef nonnull align 8 dereferenceable(24) %3) #29
  invoke void @_ZN6duckdb14BaseStatistics4CopyERKS0_(ptr noundef nonnull align 8 dereferenceable(88) %0, ptr noundef nonnull align 8 dereferenceable(88) %1)
          to label %9 unwind label %7

5:                                                ; preds = %2
  %6 = landingpad { ptr, i32 }
          cleanup
  call void @_ZN6duckdb11LogicalTypeD1Ev(ptr noundef nonnull align 8 dereferenceable(24) %3) #29
  br label %10

7:                                                ; preds = %4
  %8 = landingpad { ptr, i32 }
          cleanup
  call void @_ZN6duckdb14BaseStatisticsD1Ev(ptr noundef nonnull align 8 dereferenceable(88) %0) #29
  br label %10

9:                                                ; preds = %4
  ret void

10:                                               ; preds = %7, %5
  %.pn = phi { ptr, i32 } [ %8, %7 ], [ %6, %5 ]
  resume { ptr, i32 } %.pn
}